target datalayout = "e-m:e-p270:32:32-p271:32:32-p272:64:64-i64:64-i128:128-f80:128-n8:16:32:64-S128"
target triple = "x86_64-pc-linux-gnu"

%struct.GSS_FUNCTION_TABLE = type { ptr, ptr, ptr, ptr, ptr, ptr, ptr, ptr, ptr, ptr, ptr, ptr, ptr, ptr, ptr, ptr, ptr, ptr, ptr, ptr, ptr, ptr, ptr, ptr, ptr, ptr, ptr, ptr, ptr }

@JGSS_DEBUG = external global i32, align 4
@stderr = external global ptr, align 8
@ftab = external global ptr, align 8
@.str.6 = private unnamed_addr constant [46 x i8] c"[GSSLibStub:%d] [GSSLibStub_releaseName] %ld\0A\00", align 1
@.str.7 = private unnamed_addr constant [25 x i8] c"[GSSLibStub_releaseName]\00", align 1

; Function Attrs: nounwind uwtable
define void @Java_sun_security_jgss_wrapper_GSSLibStub_releaseName(ptr noundef %0, ptr noundef %1, i64 noundef %2) #0 {
  %4 = alloca ptr, align 8
  %5 = alloca ptr, align 8
  %6 = alloca i64, align 8
  %7 = alloca i32, align 4
  %8 = alloca i32, align 4
  %9 = alloca ptr, align 8
  store ptr %0, ptr %4, align 8
  store ptr %1, ptr %5, align 8
  store i64 %2, ptr %6, align 8
  %10 = load i64, ptr %6, align 8
  %11 = inttoptr i64 %10 to ptr
  store ptr %11, ptr %9, align 8
  %12 = load i32, ptr @JGSS_DEBUG, align 4
  %13 = icmp ne i32 %12, 0
  br i1 %13, label %14, label %20

14:                                               ; preds = %3
  %15 = load ptr, ptr @stderr, align 8
  %16 = load i64, ptr %6, align 8
  %17 = call i32 (ptr, ptr, ...) @fprintf(ptr noundef %15, ptr noundef @.str.6, i32 noundef 365, i64 noundef %16) #5
  %18 = load ptr, ptr @stderr, align 8
  %19 = call i32 @fflush(ptr noundef %18)
  br label %20

20:                                               ; preds = %14, %3
  %21 = load ptr, ptr %9, align 8
  %22 = icmp ne ptr %21, null
  br i1 %22, label %23, label %32

23:                                               ; preds = %20
  %24 = load ptr, ptr @ftab, align 8
  %25 = getelementptr inbounds %struct.GSS_FUNCTION_TABLE, ptr %24, i32 0, i32 1
  %26 = load ptr, ptr %25, align 8
  %27 = call i32 %26(ptr noundef %7, ptr noundef %9)
  store i32 %27, ptr %8, align 4
  %28 = load ptr, ptr %4, align 8
  %29 = load ptr, ptr %5, align 8
  %30 = load i32, ptr %8, align 4
  %31 = load i32, ptr %7, align 4
  call void @checkStatus(ptr noundef %28, ptr noundef %29, i32 noundef %30, i32 noundef %31, ptr noundef @.str.7)
  br label %32

32:                                               ; preds = %23, %20
  ret void
}