; Function Attrs: nounwind uwtable
define void @Java_sun_security_jgss_wrapper_GSSLibStub_releaseName(ptr noundef %0, ptr noundef %1, i64 noundef %2) local_unnamed_addr #0 {
  %4 = alloca i32, align 4
  %5 = alloca ptr, align 8
  %6 = inttoptr i64 %2 to ptr
  store ptr %6, ptr %5, align 8
  %7 = load i32, ptr @JGSS_DEBUG, align 4
  %.not = icmp eq i32 %7, 0
  br i1 %.not, label %13, label %8

8:                                                ; preds = %3
  %9 = load ptr, ptr @stderr, align 8
  %10 = tail call i32 (ptr, ptr, ...) @fprintf(ptr noundef %9, ptr noundef nonnull @.str.6, i32 noundef 365, i64 noundef %2) #8
  %11 = load ptr, ptr @stderr, align 8
  %12 = tail call i32 @fflush(ptr noundef %11)
  br label %13

13:                                               ; preds = %8, %3
  %.not4 = icmp eq i64 %2, 0
  br i1 %.not4, label %20, label %14

14:                                               ; preds = %13
  %15 = load ptr, ptr @ftab, align 8
  %16 = getelementptr inbounds i8, ptr %15, i64 8
  %17 = load ptr, ptr %16, align 8
  %18 = call i32 %17(ptr noundef nonnull %4, ptr noundef nonnull %5) #9
  %19 = load i32, ptr %4, align 4
  call void @checkStatus(ptr noundef %0, ptr noundef %1, i32 noundef %18, i32 noundef %19, ptr noundef nonnull @.str.7) #9
  br label %20

20:                                               ; preds = %14, %13
  ret void
}